; Function Attrs: mustprogress uwtable
define dso_local void @_ZN7V3Graph4rankEv(ptr noundef nonnull align 8 dereferenceable(24) %0) #3 align 2 {
  %2 = alloca %class.GraphAlgRank, align 8
  store ptr %0, ptr %2, align 8
  %3 = getelementptr inbounds i8, ptr %2, i64 8
  store ptr @_ZN11V3GraphEdge16followAlwaysTrueEPKS_, ptr %3, align 8
  %4 = getelementptr inbounds i8, ptr %0, i64 8
  %5 = load ptr, ptr %4, align 8
  %.not46.i.i = icmp eq ptr %5, null
  br i1 %.not46.i.i, label %_ZN12GraphAlgRankC2EP7V3GraphPFbPK11V3GraphEdgeE.exit, label %.lr.ph.i.i

.lr.ph.i.i:                                       ; preds = %1, %.lr.ph.i.i
  %.sroa.0.047.i.i = phi ptr [ %7, %.lr.ph.i.i ], [ %5, %1 ]
  %6 = getelementptr inbounds i8, ptr %.sroa.0.047.i.i, i64 8
  %7 = load ptr, ptr %6, align 8
  %.not45.i.i = icmp eq ptr %7, null
  %8 = select i1 %.not45.i.i, ptr %.sroa.0.047.i.i, ptr %7
  tail call void @llvm.prefetch.p0(ptr nonnull %8, i32 1, i32 3, i32 1)
  %9 = getelementptr inbounds i8, ptr %.sroa.0.047.i.i, i64 68
  store i32 0, ptr %9, align 4
  %10 = getelementptr inbounds i8, ptr %.sroa.0.047.i.i, i64 72
  store i32 0, ptr %10, align 8
  br i1 %.not45.i.i, label %._crit_edge.i.i, label %.lr.ph.i.i

._crit_edge.i.i:                                  ; preds = %.lr.ph.i.i
  %.sroa.036.048.pre.i.i = load ptr, ptr %4, align 8
  %.not4249.i.i = icmp eq ptr %.sroa.036.048.pre.i.i, null
  br i1 %.not4249.i.i, label %_ZN12GraphAlgRankC2EP7V3GraphPFbPK11V3GraphEdgeE.exit, label %.lr.ph52.i.i

.lr.ph52.i.i:                                     ; preds = %._crit_edge.i.i, %17
  %.sroa.036.050.i.i = phi ptr [ %.sroa.036.0.i.i, %17 ], [ %.sroa.036.048.pre.i.i, %._crit_edge.i.i ]
  %11 = getelementptr inbounds i8, ptr %.sroa.036.050.i.i, i64 8
  %12 = load ptr, ptr %11, align 8
  %.not43.i.i = icmp eq ptr %12, null
  %13 = select i1 %.not43.i.i, ptr %.sroa.036.050.i.i, ptr %12
  call void @llvm.prefetch.p0(ptr nonnull %13, i32 1, i32 3, i32 1)
  %14 = getelementptr inbounds i8, ptr %.sroa.036.050.i.i, i64 72
  %15 = load i32, ptr %14, align 8
  %.not44.i.i = icmp eq i32 %15, 0
  br i1 %.not44.i.i, label %16, label %17

16:                                               ; preds = %.lr.ph52.i.i
  call void @_ZN12GraphAlgRank13vertexIterateEP13V3GraphVertexj(ptr noundef nonnull align 8 dereferenceable(16) %2, ptr noundef nonnull %.sroa.036.050.i.i, i32 noundef 1)
  %.sroa.036.0.pre.i.i = load ptr, ptr %11, align 8
  br label %17

17:                                               ; preds = %16, %.lr.ph52.i.i
  %.sroa.036.0.i.i = phi ptr [ %12, %.lr.ph52.i.i ], [ %.sroa.036.0.pre.i.i, %16 ]
  %.not42.i.i = icmp eq ptr %.sroa.036.0.i.i, null
  br i1 %.not42.i.i, label %_ZN12GraphAlgRankC2EP7V3GraphPFbPK11V3GraphEdgeE.exit, label %.lr.ph52.i.i

_ZN12GraphAlgRankC2EP7V3GraphPFbPK11V3GraphEdgeE.exit: ; preds = %17, %1, %._crit_edge.i.i
  ret void
}